target datalayout = "e-m:e-p270:32:32-p271:32:32-p272:64:64-i64:64-i128:128-f80:128-n8:16:32:64-S128"
target triple = "x86_64-pc-linux-gnu"

%"class.llvm::Value" = type { i8, i8, i16, i32, ptr, ptr }

; Function Attrs: mustprogress nounwind uwtable
define linkonce_odr hidden noundef i32 @_ZNK4llvm5Value10getValueIDEv(ptr noundef nonnull align 8 dereferenceable(24) %0) #1 comdat align 2 {
  %2 = alloca ptr, align 8
  store ptr %0, ptr %2, align 8
  %3 = load ptr, ptr %2, align 8
  %4 = getelementptr inbounds nuw %"class.llvm::Value", ptr %3, i32 0, i32 0
  %5 = load i8, ptr %4, align 8
  %6 = zext i8 %5 to i32
  ret i32 %6
}

; Function Attrs: mustprogress nounwind uwtable
define dso_local void @_ZNK4llvm12MemoryAccess5printERNS_11raw_ostreamE(ptr noundef nonnull align 8 dereferenceable(72) %0, ptr noundef nonnull align 8 dereferenceable(48) %1) #1 align 2 {
  %3 = alloca ptr, align 8
  %4 = alloca ptr, align 8
  store ptr %0, ptr %3, align 8
  store ptr %1, ptr %4, align 8
  %5 = load ptr, ptr %3, align 8
  %6 = call noundef i32 @_ZNK4llvm5Value10getValueIDEv(ptr noundef nonnull align 8 dereferenceable(24) %5)
  switch i32 %6, label %13 [
    i32 28, label %7
    i32 27, label %9
    i32 26, label %11
  ]

7:                                                ; preds = %2
  %8 = load ptr, ptr %4, align 8
  call void @_ZNK4llvm9MemoryPhi5printERNS_11raw_ostreamE(ptr noundef nonnull align 8 dereferenceable(80) %5, ptr noundef nonnull align 8 dereferenceable(48) %8)
  br label %14

9:                                                ; preds = %2
  %10 = load ptr, ptr %4, align 8
  call void @_ZNK4llvm9MemoryDef5printERNS_11raw_ostreamE(ptr noundef nonnull align 8 dereferenceable(88) %5, ptr noundef nonnull align 8 dereferenceable(48) %10)
  br label %14

11:                                               ; preds = %2
  %12 = load ptr, ptr %4, align 8
  call void @_ZNK4llvm9MemoryUse5printERNS_11raw_ostreamE(ptr noundef nonnull align 8 dereferenceable(88) %5, ptr noundef nonnull align 8 dereferenceable(48) %12)
  br label %14

13:                                               ; preds = %2
  unreachable

14:                                               ; preds = %11, %9, %7
  ret void
}