; Function Attrs: mustprogress nounwind uwtable
define dso_local void @_ZNK4llvm12MemoryAccess5printERNS_11raw_ostreamE(ptr noundef nonnull align 8 dereferenceable(72) %0, ptr noundef nonnull align 8 dereferenceable(48) %1) local_unnamed_addr #0 align 2 {
  %3 = load i8, ptr %0, align 8
  switch i8 %3, label %7 [
    i8 28, label %4
    i8 27, label %5
    i8 26, label %6
  ]

4:                                                ; preds = %2
  tail call void @_ZNK4llvm9MemoryPhi5printERNS_11raw_ostreamE(ptr noundef nonnull align 8 dereferenceable(80) %0, ptr noundef nonnull align 8 dereferenceable(48) %1)
  br label %8

5:                                                ; preds = %2
  tail call void @_ZNK4llvm9MemoryDef5printERNS_11raw_ostreamE(ptr noundef nonnull align 8 dereferenceable(88) %0, ptr noundef nonnull align 8 dereferenceable(48) %1)
  br label %8

6:                                                ; preds = %2
  tail call void @_ZNK4llvm9MemoryUse5printERNS_11raw_ostreamE(ptr noundef nonnull align 8 dereferenceable(88) %0, ptr noundef nonnull align 8 dereferenceable(48) %1)
  br label %8

7:                                                ; preds = %2
  unreachable

8:                                                ; preds = %6, %5, %4
  ret void
}